target datalayout = "e-m:e-p270:32:32-p271:32:32-p272:64:64-i64:64-i128:128-f80:128-n8:16:32:64-S128"
target triple = "x86_64-pc-linux-gnu"

%struct.cook = type { ptr, ptr, ptr, ptr, ptr, ptr, %struct.AudioDSPContext, %struct.GetBitContext, i32, i32, %struct.AVLFG, i32, ptr, ptr, ptr, [13 x %struct.VLC], [7 x %struct.VLC], i32, [31 x float], ptr, [8 x i8], [2048 x float], [1024 x float], [1024 x float], [1060 x float], [5 x ptr], i32, [5 x %struct.COOKSubpacket], [8 x i8] }
%struct.AudioDSPContext = type { ptr, ptr, ptr }
%struct.GetBitContext = type { ptr, ptr, i32, i32, i32 }
%struct.AVLFG = type { [64 x i32], i32 }
%struct.VLC = type { i32, ptr, i32, i32 }
%struct.COOKSubpacket = type { i32, i32, i32, i32, i32, i32, i32, i32, i32, i32, %struct.VLC, i32, i32, i32, i32, i32, [1024 x float], [1024 x float], %struct.cook_gains, %struct.cook_gains, [9 x i32], [9 x i32], [9 x i32], [9 x i32] }
%struct.cook_gains = type { ptr, ptr }

; Function Attrs: nounwind uwtable
define internal void @saturate_output_float(ptr noundef %0, ptr noundef %1) #1 {
  %3 = alloca ptr, align 8
  %4 = alloca ptr, align 8
  store ptr %0, ptr %3, align 8, !tbaa !29
  store ptr %1, ptr %4, align 8, !tbaa !112
  %5 = load ptr, ptr %3, align 8, !tbaa !29
  %6 = getelementptr inbounds nuw %struct.cook, ptr %5, i32 0, i32 6
  %7 = getelementptr inbounds nuw %struct.AudioDSPContext, ptr %6, i32 0, i32 2
  %8 = load ptr, ptr %7, align 16, !tbaa !130
  %9 = load ptr, ptr %4, align 8, !tbaa !112
  %10 = load ptr, ptr %3, align 8, !tbaa !29
  %11 = getelementptr inbounds nuw %struct.cook, ptr %10, i32 0, i32 21
  %12 = getelementptr inbounds [2048 x float], ptr %11, i64 0, i64 0
  %13 = load ptr, ptr %3, align 8, !tbaa !29
  %14 = getelementptr inbounds nuw %struct.cook, ptr %13, i32 0, i32 9
  %15 = load i32, ptr %14, align 4, !tbaa !59
  %16 = sext i32 %15 to i64
  %17 = getelementptr inbounds float, ptr %12, i64 %16
  %18 = load ptr, ptr %3, align 8, !tbaa !29
  %19 = getelementptr inbounds nuw %struct.cook, ptr %18, i32 0, i32 9
  %20 = load i32, ptr %19, align 4, !tbaa !59
  %21 = add nsw i32 %20, 8
  %22 = sub nsw i32 %21, 1
  %23 = and i32 %22, -8
  call void %8(ptr noundef %9, ptr noundef %17, i32 noundef %23, float noundef -1.000000e+00, float noundef 1.000000e+00)
  ret void
}