; Function Attrs: nounwind uwtable
define internal void @saturate_output_float(ptr noundef %0, ptr noundef %1) #1 {
  %3 = getelementptr inbounds nuw i8, ptr %0, i64 64
  %4 = load ptr, ptr %3, align 16, !tbaa !122
  %5 = getelementptr inbounds nuw i8, ptr %0, i64 1024
  %6 = getelementptr inbounds nuw i8, ptr %0, i64 108
  %7 = load i32, ptr %6, align 4, !tbaa !39
  %8 = sext i32 %7 to i64
  %9 = getelementptr inbounds float, ptr %5, i64 %8
  %10 = add nsw i32 %7, 7
  %11 = and i32 %10, -8
  tail call void %4(ptr noundef %1, ptr noundef nonnull %9, i32 noundef %11, float noundef -1.000000e+00, float noundef 1.000000e+00) #13
  ret void
}